target datalayout = "e-m:e-p270:32:32-p271:32:32-p272:64:64-i64:64-i128:128-f80:128-n8:16:32:64-S128"
target triple = "x86_64-pc-linux-gnu"

%struct.Bnd_Man_t_ = type { i32, i32, i32, i32, i32, i32, i32, i32, i32, i32, i32, i32, i32, i32, i32, i32, i32, i32, i32, i32, i32, ptr, ptr, ptr, ptr, ptr, ptr, ptr, ptr, ptr, ptr, ptr, ptr, ptr, ptr }

@pBnd = global ptr null, align 8
@.str.35 = private unnamed_addr constant [42 x i8] c"Generating spec_out with given boundary.\0A\00", align 1

; Function Attrs: nounwind uwtable
define ptr @Bnd_ManGenSpecOut(ptr noundef %0) #0 {
  %2 = alloca ptr, align 8
  %3 = alloca ptr, align 8
  store ptr %0, ptr %2, align 8
  %4 = load ptr, ptr @pBnd, align 8
  %5 = getelementptr inbounds %struct.Bnd_Man_t_, ptr %4, i32 0, i32 13
  %6 = load i32, ptr %5, align 4
  %7 = icmp ne i32 %6, 0
  br i1 %7, label %8, label %10

8:                                                ; preds = %1
  %9 = call i32 (ptr, ...) @printf(ptr noundef @.str.35)
  br label %10

10:                                               ; preds = %8, %1
  %11 = load ptr, ptr %2, align 8
  %12 = load ptr, ptr @pBnd, align 8
  %13 = getelementptr inbounds %struct.Bnd_Man_t_, ptr %12, i32 0, i32 27
  %14 = load ptr, ptr %13, align 8
  %15 = load ptr, ptr @pBnd, align 8
  %16 = getelementptr inbounds %struct.Bnd_Man_t_, ptr %15, i32 0, i32 28
  %17 = load ptr, ptr %16, align 8
  %18 = call ptr @Bnd_ManCutBoundary(ptr noundef %11, ptr noundef %14, ptr noundef %17, ptr noundef null, ptr noundef null)
  store ptr %18, ptr %3, align 8
  %19 = load ptr, ptr %3, align 8
  ret ptr %19
}