; Function Attrs: nounwind uwtable
define ptr @Bnd_ManGenSpecOut(ptr noundef %0) local_unnamed_addr #1 {
  %2 = load ptr, ptr @pBnd, align 8
  %3 = getelementptr inbounds nuw i8, ptr %2, i64 52
  %4 = load i32, ptr %3, align 4
  %.not = icmp eq i32 %4, 0
  br i1 %.not, label %6, label %5

5:                                                ; preds = %1
  %puts = tail call i32 @puts(ptr nonnull dereferenceable(1) @str.12)
  %.pre = load ptr, ptr @pBnd, align 8
  br label %6

6:                                                ; preds = %5, %1
  %7 = phi ptr [ %.pre, %5 ], [ %2, %1 ]
  %8 = getelementptr inbounds nuw i8, ptr %7, i64 136
  %9 = load ptr, ptr %8, align 8
  %10 = getelementptr inbounds nuw i8, ptr %7, i64 144
  %11 = load ptr, ptr %10, align 8
  %12 = tail call ptr @Bnd_ManCutBoundary(ptr noundef %0, ptr noundef %9, ptr noundef %11, ptr noundef null, ptr noundef null)
  ret ptr %12
}